; Function Attrs: nofree norecurse nosync nounwind memory(argmem: readwrite) uwtable
define hidden void @WebPYuv444ToArgb_C(ptr noundef readonly captures(none) %0, ptr noundef readonly captures(none) %1, ptr noundef readonly captures(none) %2, ptr noundef writeonly captures(none) %3, i32 noundef %4) #1 {
  %6 = icmp sgt i32 %4, 0
  br i1 %6, label %.lr.ph.preheader, label %._crit_edge

.lr.ph.preheader:                                 ; preds = %5
  %wide.trip.count = zext nneg i32 %4 to i64
  br label %.lr.ph

.lr.ph:                                           ; preds = %.lr.ph.preheader, %.lr.ph
  %indvars.iv = phi i64 [ 0, %.lr.ph.preheader ], [ %indvars.iv.next, %.lr.ph ]
  %7 = getelementptr inbounds nuw i8, ptr %0, i64 %indvars.iv
  %8 = load i8, ptr %7, align 1
  %9 = getelementptr inbounds nuw i8, ptr %1, i64 %indvars.iv
  %10 = load i8, ptr %9, align 1
  %11 = getelementptr inbounds nuw i8, ptr %2, i64 %indvars.iv
  %12 = load i8, ptr %11, align 1
  %13 = shl nsw i64 %indvars.iv, 2
  %14 = getelementptr inbounds nuw i8, ptr %3, i64 %13
  store i8 -1, ptr %14, align 1
  %15 = zext i8 %8 to i32
  %16 = zext i8 %10 to i32
  %17 = zext i8 %12 to i32
  %18 = getelementptr inbounds nuw i8, ptr %14, i64 1
  %19 = mul nuw nsw i32 %15, 19077
  %20 = lshr i32 %19, 8
  %21 = mul nuw nsw i32 %17, 26149
  %22 = lshr i32 %21, 8
  %23 = add nuw nsw i32 %22, %20
  %24 = add nsw i32 %23, -14234
  %25 = icmp ult i32 %24, 16384
  %26 = lshr i32 %24, 6
  %27 = icmp samesign ult i32 %23, 14234
  %28 = select i1 %27, i32 0, i32 255
  %29 = select i1 %25, i32 %26, i32 %28
  %30 = trunc i32 %29 to i8
  store i8 %30, ptr %18, align 1
  %31 = mul nuw nsw i32 %16, 6419
  %32 = lshr i32 %31, 8
  %33 = mul nuw nsw i32 %17, 13320
  %34 = lshr i32 %33, 8
  %35 = add nuw nsw i32 %32, %34
  %36 = sub nsw i32 %20, %35
  %37 = add nsw i32 %36, 8708
  %38 = icmp ult i32 %37, 16384
  %39 = lshr i32 %37, 6
  %40 = icmp slt i32 %36, -8708
  %41 = select i1 %40, i32 0, i32 255
  %42 = select i1 %38, i32 %39, i32 %41
  %43 = trunc i32 %42 to i8
  %44 = getelementptr inbounds nuw i8, ptr %14, i64 2
  store i8 %43, ptr %44, align 1
  %45 = mul nuw nsw i32 %16, 33050
  %46 = lshr i32 %45, 8
  %47 = add nuw nsw i32 %46, %20
  %48 = add nsw i32 %47, -17685
  %49 = icmp ult i32 %48, 16384
  %50 = lshr i32 %48, 6
  %51 = icmp samesign ult i32 %47, 17685
  %52 = select i1 %51, i32 0, i32 255
  %53 = select i1 %49, i32 %50, i32 %52
  %54 = trunc i32 %53 to i8
  %55 = getelementptr inbounds nuw i8, ptr %14, i64 3
  store i8 %54, ptr %55, align 1
  %indvars.iv.next = add nuw nsw i64 %indvars.iv, 1
  %exitcond.not = icmp eq i64 %indvars.iv.next, %wide.trip.count
  br i1 %exitcond.not, label %._crit_edge, label %.lr.ph, !llvm.loop !9

._crit_edge:                                      ; preds = %.lr.ph, %5
  ret void
}